; Function Attrs: mustprogress norecurse uwtable
define dso_local noundef i32 @main(i32 noundef %argc, ptr nocapture noundef readonly %argv) local_unnamed_addr #6 {
entry:
  %cmp.not = icmp eq i32 %argc, 2
  br i1 %cmp.not, label %if.end, label %if.then

if.then:                                          ; preds = %entry
  %call = tail call noundef nonnull align 8 dereferenceable(8) ptr @_ZStlsISt11char_traitsIcEERSt13basic_ostreamIcT_ES5_PKc(ptr noundef nonnull align 8 dereferenceable(8) @_ZSt4cerr, ptr noundef nonnull @.str)
  %call1 = tail call noundef nonnull align 8 dereferenceable(8) ptr @_ZNSolsEPFRSoS_E(ptr noundef nonnull align 8 dereferenceable(8) %call, ptr noundef nonnull @_ZSt4endlIcSt11char_traitsIcEERSt13basic_ostreamIT_T0_ES6_)
  tail call void @exit(i32 noundef 1) #34
  unreachable

if.end:                                           ; preds = %entry
  %arrayidx = getelementptr inbounds i8, ptr %argv, i64 8
  %0 = load ptr, ptr %arrayidx, align 8
  %call2 = tail call i32 @atoi(ptr nocapture noundef %0) #35
  tail call void @_Z8for_eachi(i32 noundef %call2)
  %1 = load ptr, ptr %arrayidx, align 8
  %call4 = tail call i32 @atoi(ptr nocapture noundef %1) #35
  tail call void @_Z14for_each_indexi(i32 noundef %call4)
  ret i32 0
}